---
triple:          'arm64-apple-darwin'
binary-path:     '/Users/chengpingfeng/Desktop/C_Practice_Problem_Sets/ds_oop//run.exe'
relocations:
  - { offsetInCU: 0x55C3, offset: 0x55C3, size: 0x8, addend: 0x0, symName: __ZNSt3__124__put_character_sequenceB8ue170006IcNS_11char_traitsIcEEEERNS_13basic_ostreamIT_T0_EES7_PKS4_m, symObjAddr: 0x4294, symBinAddr: 0x100006F04, symSize: 0x1EC }
  - { offsetInCU: 0x7B2C, offset: 0x7B2C, size: 0x8, addend: 0x0, symName: __ZNSt3__17getlineB8ue170006IcNS_11char_traitsIcEENS_9allocatorIcEEEERNS_13basic_istreamIT_T0_EES9_RNS_12basic_stringIS6_S7_T1_EE, symObjAddr: 0x478, symBinAddr: 0x1000030E8, symSize: 0x5C }
  - { offsetInCU: 0x7F00, offset: 0x7F00, size: 0x8, addend: 0x0, symName: __ZNSt3__17getlineB8ue170006IcNS_11char_traitsIcEENS_9allocatorIcEEEERNS_13basic_istreamIT_T0_EES9_RNS_12basic_stringIS6_S7_T1_EES6_, symObjAddr: 0x5FC, symBinAddr: 0x10000326C, symSize: 0x238 }
  - { offsetInCU: 0x813F, offset: 0x813F, size: 0x8, addend: 0x0, symName: __ZNSt3__1neB8ue170006IPK7FortuneEEbRKNS_11__wrap_iterIT_EES8_, symObjAddr: 0xE18, symBinAddr: 0x100003A88, symSize: 0x34 }
  - { offsetInCU: 0x8182, offset: 0x8182, size: 0x8, addend: 0x0, symName: __ZNSt3__1lsB8ue170006INS_11char_traitsIcEEEERNS_13basic_ostreamIcT_EES6_PKc, symObjAddr: 0xE64, symBinAddr: 0x100003AD4, symSize: 0x48 }
  - { offsetInCU: 0x81C8, offset: 0x81C8, size: 0x8, addend: 0x0, symName: __ZNSt3__1lsB8ue170006IcNS_11char_traitsIcEENS_9allocatorIcEEEERNS_13basic_ostreamIT_T0_EES9_RKNS_12basic_stringIS6_S7_T1_EE, symObjAddr: 0xEAC, symBinAddr: 0x100003B1C, symSize: 0x4C }
  - { offsetInCU: 0x822B, offset: 0x822B, size: 0x8, addend: 0x0, symName: __ZNSt3__14endlB8ue170006IcNS_11char_traitsIcEEEERNS_13basic_ostreamIT_T0_EES7_, symObjAddr: 0x1110, symBinAddr: 0x100003D80, symSize: 0x58 }
  - { offsetInCU: 0x826B, offset: 0x826B, size: 0x8, addend: 0x0, symName: __ZNSt3__1eqB8ue170006IPK7FortuneEEbRKNS_11__wrap_iterIT_EES8_, symObjAddr: 0x136C, symBinAddr: 0x100003FDC, symSize: 0x48 }
  - { offsetInCU: 0x82AE, offset: 0x82AE, size: 0x8, addend: 0x0, symName: __ZNSt3__112__to_addressB8ue170006I7FortuneEEPT_S3_, symObjAddr: 0x1AE4, symBinAddr: 0x100004754, symSize: 0x14 }
  - { offsetInCU: 0x82E3, offset: 0x82E3, size: 0x8, addend: 0x0, symName: __ZNSt3__119__libcpp_deallocateB8ue170006EPvmm, symObjAddr: 0x1BD4, symBinAddr: 0x100004844, symSize: 0x30 }
  - { offsetInCU: 0x832B, offset: 0x832B, size: 0x8, addend: 0x0, symName: __ZNSt3__127__do_deallocate_handle_sizeB8ue170006IJEEEvPvmDpT_, symObjAddr: 0x1C04, symBinAddr: 0x100004874, symSize: 0x28 }
  - { offsetInCU: 0x8369, offset: 0x8369, size: 0x8, addend: 0x0, symName: __ZNSt3__124__libcpp_operator_deleteB8ue170006IJPvEEEvDpT_, symObjAddr: 0x1C2C, symBinAddr: 0x10000489C, symSize: 0x24 }
  - { offsetInCU: 0x839E, offset: 0x839E, size: 0x8, addend: 0x0, symName: __ZNSt3__112__to_addressB8ue170006IKcEEPT_S3_, symObjAddr: 0x1EBC, symBinAddr: 0x100004B2C, symSize: 0x14 }
  - { offsetInCU: 0x8406, offset: 0x8406, size: 0x8, addend: 0x0, symName: __ZNSt3__19use_facetB8ue170006INS_5ctypeIcEEEERKT_RKNS_6localeE, symObjAddr: 0x20B0, symBinAddr: 0x100004D20, symSize: 0x2C }
  - { offsetInCU: 0x8B08, offset: 0x8B08, size: 0x8, addend: 0x0, symName: __ZNSt3__13maxB8ue170006ImEERKT_S3_S3_, symObjAddr: 0x2F9C, symBinAddr: 0x100005C0C, symSize: 0x2C }
  - { offsetInCU: 0x8B4B, offset: 0x8B4B, size: 0x8, addend: 0x0, symName: __ZNSt3__13minB8ue170006ImEERKT_S3_S3_, symObjAddr: 0x2FC8, symBinAddr: 0x100005C38, symSize: 0x2C }
  - { offsetInCU: 0x8D8F, offset: 0x8D8F, size: 0x8, addend: 0x0, symName: __ZNSt3__13minB8ue170006ImNS_6__lessIvvEEEERKT_S5_S5_T0_, symObjAddr: 0x3054, symBinAddr: 0x100005CC4, symSize: 0x54 }
  - { offsetInCU: 0x8E2E, offset: 0x8E2E, size: 0x8, addend: 0x0, symName: __ZNSt3__120__throw_length_errorB8ue170006EPKc, symObjAddr: 0x313C, symBinAddr: 0x100005DAC, symSize: 0x64 }
  - { offsetInCU: 0x8E58, offset: 0x8E58, size: 0x8, addend: 0x0, symName: __ZNSt3__13maxB8ue170006ImNS_6__lessIvvEEEERKT_S5_S5_T0_, symObjAddr: 0x3220, symBinAddr: 0x100005E90, symSize: 0x54 }
  - { offsetInCU: 0x8EB2, offset: 0x8EB2, size: 0x8, addend: 0x0, symName: __ZNSt3__119__allocate_at_leastB8ue170006INS_9allocatorI7FortuneEEEENS_19__allocation_resultINS_16allocator_traitsIT_E7pointerEEERS6_m, symObjAddr: 0x3390, symBinAddr: 0x100006000, symSize: 0x40 }
  - { offsetInCU: 0x8EF5, offset: 0x8EF5, size: 0x8, addend: 0x0, symName: __ZNSt3__117__libcpp_allocateB8ue170006Emm, symObjAddr: 0x3518, symBinAddr: 0x100006188, symSize: 0x28 }
  - { offsetInCU: 0x8F32, offset: 0x8F32, size: 0x8, addend: 0x0, symName: __ZNSt3__121__libcpp_operator_newB8ue170006IJmEEEPvDpT_, symObjAddr: 0x3540, symBinAddr: 0x1000061B0, symSize: 0x24 }
  - { offsetInCU: 0x8F6B, offset: 0x8F6B, size: 0x8, addend: 0x0, symName: __ZNSt3__142__uninitialized_allocator_move_if_noexceptB8ue170006INS_9allocatorI7FortuneEENS_16reverse_iteratorIPS2_EES6_S6_EET2_RT_T0_T1_S7_, symObjAddr: 0x35C8, symBinAddr: 0x100006238, symSize: 0x12C }
  - { offsetInCU: 0x900B, offset: 0x900B, size: 0x8, addend: 0x0, symName: __ZNSt3__14swapB8ue170006IP7FortuneEENS_9enable_ifIXaasr21is_move_constructibleIT_EE5valuesr18is_move_assignableIS4_EE5valueEvE4typeERS4_S7_, symObjAddr: 0x3740, symBinAddr: 0x1000063B0, symSize: 0x3C }
  - { offsetInCU: 0x905C, offset: 0x905C, size: 0x8, addend: 0x0, symName: __ZNSt3__122__make_exception_guardB8ue170006INS_29_AllocatorDestroyRangeReverseINS_9allocatorI7FortuneEENS_16reverse_iteratorIPS3_EEEEEENS_28__exception_guard_exceptionsIT_EESA_, symObjAddr: 0x3844, symBinAddr: 0x1000064B4, symSize: 0x4C }
  - { offsetInCU: 0x9092, offset: 0x9092, size: 0x8, addend: 0x0, symName: __ZNSt3__1neB8ue170006IP7FortuneS2_EEbRKNS_16reverse_iteratorIT_EERKNS3_IT0_EE, symObjAddr: 0x38D4, symBinAddr: 0x100006544, symSize: 0x48 }
  - { offsetInCU: 0x90DE, offset: 0x90DE, size: 0x8, addend: 0x0, symName: __ZNSt3__112__to_addressB8ue170006INS_16reverse_iteratorIP7FortuneEEvEEu7__decayIDTclsr19__to_address_helperIT_EE6__callclsr3stdE7declvalIRKS5_EEEEES7_, symObjAddr: 0x3950, symBinAddr: 0x1000065C0, symSize: 0x24 }
  - { offsetInCU: 0x913D, offset: 0x913D, size: 0x8, addend: 0x0, symName: __ZNSt3__119__allocator_destroyB8ue170006INS_9allocatorI7FortuneEENS_16reverse_iteratorINS4_IPS2_EEEES7_EEvRT_T0_T1_, symObjAddr: 0x3D3C, symBinAddr: 0x1000069AC, symSize: 0x70 }
  - { offsetInCU: 0x91A2, offset: 0x91A2, size: 0x8, addend: 0x0, symName: __ZNSt3__1neB8ue170006INS_16reverse_iteratorIP7FortuneEES4_EEbRKNS1_IT_EERKNS1_IT0_EE, symObjAddr: 0x3DE8, symBinAddr: 0x100006A58, symSize: 0x60 }
  - { offsetInCU: 0x91EE, offset: 0x91EE, size: 0x8, addend: 0x0, symName: __ZNSt3__112__to_addressB8ue170006INS_16reverse_iteratorINS1_IP7FortuneEEEEvEEu7__decayIDTclsr19__to_address_helperIT_EE6__callclsr3stdE7declvalIRKS6_EEEEES8_, symObjAddr: 0x3E48, symBinAddr: 0x100006AB8, symSize: 0x24 }
  - { offsetInCU: 0x924D, offset: 0x924D, size: 0x8, addend: 0x0, symName: __ZNSt3__116__pad_and_outputB8ue170006IcNS_11char_traitsIcEEEENS_19ostreambuf_iteratorIT_T0_EES6_PKS4_S8_S8_RNS_8ios_baseES4_, symObjAddr: 0x44D0, symBinAddr: 0x100007140, symSize: 0x240 }
  - { offsetInCU: 0x931C, offset: 0x931C, size: 0x8, addend: 0x0, symName: __ZNSt3__118__constexpr_strlenB8ue170006EPKc, symObjAddr: 0x4940, symBinAddr: 0x1000075B0, symSize: 0x24 }
  - { offsetInCU: 0x965A, offset: 0x965A, size: 0x8, addend: 0x0, symName: __ZSt28__throw_bad_array_new_lengthB8ue170006v, symObjAddr: 0x34E4, symBinAddr: 0x100006154, symSize: 0x34 }
  - { offsetInCU: 0x9BCF, offset: 0x9BCF, size: 0x8, addend: 0x0, symName: __ZNSt3__16vectorI7FortuneNS_9allocatorIS1_EEE26__swap_out_circular_bufferERNS_14__split_bufferIS1_RS3_EE, symObjAddr: 0x2DE4, symBinAddr: 0x100005A54, symSize: 0x110 }
  - { offsetInCU: 0xBFCD, offset: 0xBFCD, size: 0x8, addend: 0x0, symName: __Z7readCSVRKNSt3__112basic_stringIcNS_11char_traitsIcEENS_9allocatorIcEEEE, symObjAddr: 0x0, symBinAddr: 0x100002C70, symSize: 0x2B4 }
  - { offsetInCU: 0xC079, offset: 0xC079, size: 0x8, addend: 0x0, symName: __ZNSt3__16vectorI7FortuneNS_9allocatorIS1_EEEC1B8ue170006Ev, symObjAddr: 0x2B4, symBinAddr: 0x100002F24, symSize: 0x2C }
  - { offsetInCU: 0xC1C3, offset: 0xC1C3, size: 0x8, addend: 0x0, symName: __ZNSt3__114basic_ifstreamIcNS_11char_traitsIcEEEC1ERKNS_12basic_stringIcS2_NS_9allocatorIcEEEEj, symObjAddr: 0x2E0, symBinAddr: 0x100002F50, symSize: 0x16C }
  - { offsetInCU: 0xC20C, offset: 0xC20C, size: 0x8, addend: 0x0, symName: __ZNSt3__112basic_stringIcNS_11char_traitsIcEENS_9allocatorIcEEEC1B8ue170006Ev, symObjAddr: 0x44C, symBinAddr: 0x1000030BC, symSize: 0x2C }
  - { offsetInCU: 0xC235, offset: 0xC235, size: 0x8, addend: 0x0, symName: __ZNKSt3__19basic_iosIcNS_11char_traitsIcEEEcvbB8ue170006Ev, symObjAddr: 0x4D4, symBinAddr: 0x100003144, symSize: 0x2C }
  - { offsetInCU: 0xC2AA, offset: 0xC2AA, size: 0x8, addend: 0x0, symName: __ZNSt3__119basic_istringstreamIcNS_11char_traitsIcEENS_9allocatorIcEEEC1B8ue170006ERKNS_12basic_stringIcS2_S4_EEj, symObjAddr: 0x500, symBinAddr: 0x100003170, symSize: 0xFC }
  - { offsetInCU: 0xC2F6, offset: 0xC2F6, size: 0x8, addend: 0x0, symName: __ZN7FortuneC1Ev, symObjAddr: 0x834, symBinAddr: 0x1000034A4, symSize: 0x2C }
  - { offsetInCU: 0xC320, offset: 0xC320, size: 0x8, addend: 0x0, symName: __ZNSt3__16vectorI7FortuneNS_9allocatorIS1_EEE9push_backB8ue170006ERKS1_, symObjAddr: 0x860, symBinAddr: 0x1000034D0, symSize: 0x6C }
  - { offsetInCU: 0xC356, offset: 0xC356, size: 0x8, addend: 0x0, symName: __ZN7FortuneD1Ev, symObjAddr: 0x8CC, symBinAddr: 0x10000353C, symSize: 0x2C }
  - { offsetInCU: 0xC386, offset: 0xC386, size: 0x8, addend: 0x0, symName: __ZNSt3__119basic_istringstreamIcNS_11char_traitsIcEENS_9allocatorIcEEED1Ev, symObjAddr: 0x8F8, symBinAddr: 0x100003568, symSize: 0x40 }
  - { offsetInCU: 0xC3B7, offset: 0xC3B7, size: 0x8, addend: 0x0, symName: __ZNSt3__114basic_ifstreamIcNS_11char_traitsIcEEED1Ev, symObjAddr: 0x938, symBinAddr: 0x1000035A8, symSize: 0x40 }
  - { offsetInCU: 0xC3E3, offset: 0xC3E3, size: 0x8, addend: 0x0, symName: __ZNSt3__16vectorI7FortuneNS_9allocatorIS1_EEED1B8ue170006Ev, symObjAddr: 0x978, symBinAddr: 0x1000035E8, symSize: 0x2C }
  - { offsetInCU: 0xC40C, offset: 0xC40C, size: 0x8, addend: 0x0, symName: __Z9writeLDIFRKNSt3__16vectorI7FortuneNS_9allocatorIS1_EEEERKNS_12basic_stringIcNS_11char_traitsIcEENS2_IcEEEESD_, symObjAddr: 0x9A4, symBinAddr: 0x100003614, symSize: 0x2A8 }
  - { offsetInCU: 0xC4CA, offset: 0xC4CA, size: 0x8, addend: 0x0, symName: __ZNSt3__114basic_ofstreamIcNS_11char_traitsIcEEEC1ERKNS_12basic_stringIcS2_NS_9allocatorIcEEEEj, symObjAddr: 0xC4C, symBinAddr: 0x1000038BC, symSize: 0x16C }
  - { offsetInCU: 0xC512, offset: 0xC512, size: 0x8, addend: 0x0, symName: __ZNKSt3__16vectorI7FortuneNS_9allocatorIS1_EEE5beginB8ue170006Ev, symObjAddr: 0xDB8, symBinAddr: 0x100003A28, symSize: 0x30 }
  - { offsetInCU: 0xC538, offset: 0xC538, size: 0x8, addend: 0x0, symName: __ZNKSt3__16vectorI7FortuneNS_9allocatorIS1_EEE3endB8ue170006Ev, symObjAddr: 0xDE8, symBinAddr: 0x100003A58, symSize: 0x30 }
  - { offsetInCU: 0xC55F, offset: 0xC55F, size: 0x8, addend: 0x0, symName: __ZNKSt3__111__wrap_iterIPK7FortuneEdeB8ue170006Ev, symObjAddr: 0xE4C, symBinAddr: 0x100003ABC, symSize: 0x18 }
  - { offsetInCU: 0xC584, offset: 0xC584, size: 0x8, addend: 0x0, symName: __ZNSt3__111__wrap_iterIPK7FortuneEppB8ue170006Ev, symObjAddr: 0xEF8, symBinAddr: 0x100003B68, symSize: 0x20 }
  - { offsetInCU: 0xC5AE, offset: 0xC5AE, size: 0x8, addend: 0x0, symName: __ZNSt3__114basic_ofstreamIcNS_11char_traitsIcEEED1Ev, symObjAddr: 0xF18, symBinAddr: 0x100003B88, symSize: 0x40 }
  - { offsetInCU: 0xC5DA, offset: 0xC5DA, size: 0x8, addend: 0x0, symName: _main, symObjAddr: 0xF58, symBinAddr: 0x100003BC8, symSize: 0x158 }
  - { offsetInCU: 0xC632, offset: 0xC632, size: 0x8, addend: 0x0, symName: __ZNSt3__112basic_stringIcNS_11char_traitsIcEENS_9allocatorIcEEEC1B8ue170006ILi0EEEPKc, symObjAddr: 0x10B0, symBinAddr: 0x100003D20, symSize: 0x34 }
  - { offsetInCU: 0xC670, offset: 0xC670, size: 0x8, addend: 0x0, symName: __ZNSt3__113basic_ostreamIcNS_11char_traitsIcEEElsB8ue170006EPFRS3_S4_E, symObjAddr: 0x10E4, symBinAddr: 0x100003D54, symSize: 0x2C }
  - { offsetInCU: 0xC6A3, offset: 0xC6A3, size: 0x8, addend: 0x0, symName: __ZN7FortuneC2Ev, symObjAddr: 0x1168, symBinAddr: 0x100003DD8, symSize: 0x3C }
  - { offsetInCU: 0xC6CE, offset: 0xC6CE, size: 0x8, addend: 0x0, symName: __ZN7FortuneD2Ev, symObjAddr: 0x11A4, symBinAddr: 0x100003E14, symSize: 0x3C }
  - { offsetInCU: 0xC6F9, offset: 0xC6F9, size: 0x8, addend: 0x0, symName: __ZNSt3__119basic_istringstreamIcNS_11char_traitsIcEENS_9allocatorIcEEED2Ev, symObjAddr: 0x11E0, symBinAddr: 0x100003E50, symSize: 0x64 }
  - { offsetInCU: 0xC731, offset: 0xC731, size: 0x8, addend: 0x0, symName: __ZTv0_n24_NSt3__119basic_istringstreamIcNS_11char_traitsIcEENS_9allocatorIcEEED1Ev, symObjAddr: 0x1244, symBinAddr: 0x100003EB4, symSize: 0x28 }
  - { offsetInCU: 0xC74D, offset: 0xC74D, size: 0x8, addend: 0x0, symName: __ZNSt3__115basic_stringbufIcNS_11char_traitsIcEENS_9allocatorIcEEED1Ev, symObjAddr: 0x126C, symBinAddr: 0x100003EDC, symSize: 0x2C }
  - { offsetInCU: 0xC779, offset: 0xC779, size: 0x8, addend: 0x0, symName: __ZNSt3__115basic_stringbufIcNS_11char_traitsIcEENS_9allocatorIcEEED2Ev, symObjAddr: 0x1298, symBinAddr: 0x100003F08, symSize: 0x48 }
  - { offsetInCU: 0xC7A5, offset: 0xC7A5, size: 0x8, addend: 0x0, symName: __ZNSt3__114basic_ifstreamIcNS_11char_traitsIcEEED2Ev, symObjAddr: 0x12E0, symBinAddr: 0x100003F50, symSize: 0x64 }
  - { offsetInCU: 0xC7DD, offset: 0xC7DD, size: 0x8, addend: 0x0, symName: __ZTv0_n24_NSt3__114basic_ifstreamIcNS_11char_traitsIcEEED1Ev, symObjAddr: 0x1344, symBinAddr: 0x100003FB4, symSize: 0x28 }
  - { offsetInCU: 0xC7F4, offset: 0xC7F4, size: 0x8, addend: 0x0, symName: __ZNKSt3__111__wrap_iterIPK7FortuneE4baseB8ue170006Ev, symObjAddr: 0x13B4, symBinAddr: 0x100004024, symSize: 0x18 }
  - { offsetInCU: 0xC819, offset: 0xC819, size: 0x8, addend: 0x0, symName: __ZNSt3__114basic_ofstreamIcNS_11char_traitsIcEEED2Ev, symObjAddr: 0x13CC, symBinAddr: 0x10000403C, symSize: 0x64 }
  - { offsetInCU: 0xC851, offset: 0xC851, size: 0x8, addend: 0x0, symName: __ZTv0_n24_NSt3__114basic_ofstreamIcNS_11char_traitsIcEEED1Ev, symObjAddr: 0x1430, symBinAddr: 0x1000040A0, symSize: 0x28 }
  - { offsetInCU: 0xC868, offset: 0xC868, size: 0x8, addend: 0x0, symName: __ZNSt3__112basic_stringIcNS_11char_traitsIcEENS_9allocatorIcEEEC2B8ue170006Ev, symObjAddr: 0x1458, symBinAddr: 0x1000040C8, symSize: 0x48 }
  - { offsetInCU: 0xC896, offset: 0xC896, size: 0x8, addend: 0x0, symName: __ZNSt3__117__compressed_pairINS_12basic_stringIcNS_11char_traitsIcEENS_9allocatorIcEEE5__repES5_EC1B8ue170006INS_18__default_init_tagESA_EEOT_OT0_, symObjAddr: 0x14A0, symBinAddr: 0x100004110, symSize: 0x3C }
  - { offsetInCU: 0xC8ED, offset: 0xC8ED, size: 0x8, addend: 0x0, symName: __ZNSt3__112basic_stringIcNS_11char_traitsIcEENS_9allocatorIcEEE14__default_initB8ue170006Ev, symObjAddr: 0x14E8, symBinAddr: 0x100004158, symSize: 0x40 }
  - { offsetInCU: 0xC912, offset: 0xC912, size: 0x8, addend: 0x0, symName: __ZNSt3__117__compressed_pairINS_12basic_stringIcNS_11char_traitsIcEENS_9allocatorIcEEE5__repES5_EC2B8ue170006INS_18__default_init_tagESA_EEOT_OT0_, symObjAddr: 0x1528, symBinAddr: 0x100004198, symSize: 0x3C }
  - { offsetInCU: 0xC969, offset: 0xC969, size: 0x8, addend: 0x0, symName: __ZNSt3__122__compressed_pair_elemINS_12basic_stringIcNS_11char_traitsIcEENS_9allocatorIcEEE5__repELi0ELb0EEC2B8ue170006ENS_18__default_init_tagE, symObjAddr: 0x1564, symBinAddr: 0x1000041D4, symSize: 0x14 }
  - { offsetInCU: 0xC99D, offset: 0xC99D, size: 0x8, addend: 0x0, symName: __ZNSt3__122__compressed_pair_elemINS_9allocatorIcEELi1ELb1EEC2B8ue170006ENS_18__default_init_tagE, symObjAddr: 0x1578, symBinAddr: 0x1000041E8, symSize: 0x2C }
  - { offsetInCU: 0xC9D1, offset: 0xC9D1, size: 0x8, addend: 0x0, symName: __ZNSt3__19allocatorIcEC2B8ue170006Ev, symObjAddr: 0x15A4, symBinAddr: 0x100004214, symSize: 0x2C }
  - { offsetInCU: 0xC9FA, offset: 0xC9FA, size: 0x8, addend: 0x0, symName: __ZNSt3__116__non_trivial_ifILb1ENS_9allocatorIcEEEC2B8ue170006Ev, symObjAddr: 0x15D0, symBinAddr: 0x100004240, symSize: 0x14 }
  - { offsetInCU: 0xCA23, offset: 0xCA23, size: 0x8, addend: 0x0, symName: __ZNSt3__117__compressed_pairINS_12basic_stringIcNS_11char_traitsIcEENS_9allocatorIcEEE5__repES5_E5firstB8ue170006Ev, symObjAddr: 0x15E4, symBinAddr: 0x100004254, symSize: 0x24 }
  - { offsetInCU: 0xCA48, offset: 0xCA48, size: 0x8, addend: 0x0, symName: __ZNSt3__122__compressed_pair_elemINS_12basic_stringIcNS_11char_traitsIcEENS_9allocatorIcEEE5__repELi0ELb0EE5__getB8ue170006Ev, symObjAddr: 0x1608, symBinAddr: 0x100004278, symSize: 0x14 }
  - { offsetInCU: 0xCA6D, offset: 0xCA6D, size: 0x8, addend: 0x0, symName: __ZNSt3__16vectorI7FortuneNS_9allocatorIS1_EEEC2B8ue170006Ev, symObjAddr: 0x161C, symBinAddr: 0x10000428C, symSize: 0x4C }
  - { offsetInCU: 0xCA9B, offset: 0xCA9B, size: 0x8, addend: 0x0, symName: __ZNSt3__117__compressed_pairIP7FortuneNS_9allocatorIS1_EEEC1B8ue170006IDnNS_18__default_init_tagEEEOT_OT0_, symObjAddr: 0x1668, symBinAddr: 0x1000042D8, symSize: 0x3C }
  - { offsetInCU: 0xCAF2, offset: 0xCAF2, size: 0x8, addend: 0x0, symName: __ZNSt3__117__compressed_pairIP7FortuneNS_9allocatorIS1_EEEC2B8ue170006IDnNS_18__default_init_tagEEEOT_OT0_, symObjAddr: 0x16A4, symBinAddr: 0x100004314, symSize: 0x40 }
  - { offsetInCU: 0xCB49, offset: 0xCB49, size: 0x8, addend: 0x0, symName: __ZNSt3__122__compressed_pair_elemIP7FortuneLi0ELb0EEC2B8ue170006IDnvEEOT_, symObjAddr: 0x16E4, symBinAddr: 0x100004354, symSize: 0x1C }
  - { offsetInCU: 0xCB8A, offset: 0xCB8A, size: 0x8, addend: 0x0, symName: __ZNSt3__122__compressed_pair_elemINS_9allocatorI7FortuneEELi1ELb1EEC2B8ue170006ENS_18__default_init_tagE, symObjAddr: 0x1700, symBinAddr: 0x100004370, symSize: 0x2C }
  - { offsetInCU: 0xCBBE, offset: 0xCBBE, size: 0x8, addend: 0x0, symName: __ZNSt3__19allocatorI7FortuneEC2B8ue170006Ev, symObjAddr: 0x172C, symBinAddr: 0x10000439C, symSize: 0x2C }
  - { offsetInCU: 0xCBE7, offset: 0xCBE7, size: 0x8, addend: 0x0, symName: __ZNSt3__116__non_trivial_ifILb1ENS_9allocatorI7FortuneEEEC2B8ue170006Ev, symObjAddr: 0x1758, symBinAddr: 0x1000043C8, symSize: 0x14 }
  - { offsetInCU: 0xCC10, offset: 0xCC10, size: 0x8, addend: 0x0, symName: __ZNSt3__16vectorI7FortuneNS_9allocatorIS1_EEED2B8ue170006Ev, symObjAddr: 0x176C, symBinAddr: 0x1000043DC, symSize: 0x44 }
  - { offsetInCU: 0xCC39, offset: 0xCC39, size: 0x8, addend: 0x0, symName: __ZNSt3__16vectorI7FortuneNS_9allocatorIS1_EEE16__destroy_vectorC1B8ue170006ERS4_, symObjAddr: 0x17B0, symBinAddr: 0x100004420, symSize: 0x34 }
  - { offsetInCU: 0xCC71, offset: 0xCC71, size: 0x8, addend: 0x0, symName: __ZNSt3__16vectorI7FortuneNS_9allocatorIS1_EEE16__destroy_vectorclB8ue170006Ev, symObjAddr: 0x17E4, symBinAddr: 0x100004454, symSize: 0x90 }
  - { offsetInCU: 0xCC96, offset: 0xCC96, size: 0x8, addend: 0x0, symName: __ZNSt3__16vectorI7FortuneNS_9allocatorIS1_EEE16__destroy_vectorC2B8ue170006ERS4_, symObjAddr: 0x1874, symBinAddr: 0x1000044E4, symSize: 0x20 }
  - { offsetInCU: 0xCCCE, offset: 0xCCCE, size: 0x8, addend: 0x0, symName: __ZNSt3__16vectorI7FortuneNS_9allocatorIS1_EEE7__clearB8ue170006Ev, symObjAddr: 0x1894, symBinAddr: 0x100004504, symSize: 0x28 }
  - { offsetInCU: 0xCCF3, offset: 0xCCF3, size: 0x8, addend: 0x0, symName: __ZNKSt3__16vectorI7FortuneNS_9allocatorIS1_EEE17__annotate_deleteB8ue170006Ev, symObjAddr: 0x18BC, symBinAddr: 0x10000452C, symSize: 0xD4 }
  - { offsetInCU: 0xCD18, offset: 0xCD18, size: 0x8, addend: 0x0, symName: __ZNSt3__116allocator_traitsINS_9allocatorI7FortuneEEE10deallocateB8ue170006ERS3_PS2_m, symObjAddr: 0x1990, symBinAddr: 0x100004600, symSize: 0x34 }
  - { offsetInCU: 0xCD5A, offset: 0xCD5A, size: 0x8, addend: 0x0, symName: __ZNSt3__16vectorI7FortuneNS_9allocatorIS1_EEE7__allocB8ue170006Ev, symObjAddr: 0x19C4, symBinAddr: 0x100004634, symSize: 0x28 }
  - { offsetInCU: 0xCD7F, offset: 0xCD7F, size: 0x8, addend: 0x0, symName: __ZNKSt3__16vectorI7FortuneNS_9allocatorIS1_EEE8capacityB8ue170006Ev, symObjAddr: 0x19EC, symBinAddr: 0x10000465C, symSize: 0x40 }
  - { offsetInCU: 0xCDA4, offset: 0xCDA4, size: 0x8, addend: 0x0, symName: __ZNSt3__16vectorI7FortuneNS_9allocatorIS1_EEE22__base_destruct_at_endB8ue170006EPS1_, symObjAddr: 0x1A2C, symBinAddr: 0x10000469C, symSize: 0x8C }
  - { offsetInCU: 0xCDE7, offset: 0xCDE7, size: 0x8, addend: 0x0, symName: __ZNSt3__116allocator_traitsINS_9allocatorI7FortuneEEE7destroyB8ue170006IS2_vEEvRS3_PT_, symObjAddr: 0x1AB8, symBinAddr: 0x100004728, symSize: 0x2C }
  - { offsetInCU: 0xCE24, offset: 0xCE24, size: 0x8, addend: 0x0, symName: __ZNSt3__19allocatorI7FortuneE7destroyB8ue170006EPS1_, symObjAddr: 0x1AF8, symBinAddr: 0x100004768, symSize: 0x28 }
  - { offsetInCU: 0xCE57, offset: 0xCE57, size: 0x8, addend: 0x0, symName: __ZNKSt3__16vectorI7FortuneNS_9allocatorIS1_EEE31__annotate_contiguous_containerB8ue170006EPKvS6_S6_S6_, symObjAddr: 0x1B20, symBinAddr: 0x100004790, symSize: 0x20 }
  - { offsetInCU: 0xCEAC, offset: 0xCEAC, size: 0x8, addend: 0x0, symName: __ZNKSt3__16vectorI7FortuneNS_9allocatorIS1_EEE4dataB8ue170006Ev, symObjAddr: 0x1B40, symBinAddr: 0x1000047B0, symSize: 0x28 }
  - { offsetInCU: 0xCED1, offset: 0xCED1, size: 0x8, addend: 0x0, symName: __ZNKSt3__16vectorI7FortuneNS_9allocatorIS1_EEE4sizeB8ue170006Ev, symObjAddr: 0x1B68, symBinAddr: 0x1000047D8, symSize: 0x28 }
  - { offsetInCU: 0xCEF6, offset: 0xCEF6, size: 0x8, addend: 0x0, symName: __ZNSt3__19allocatorI7FortuneE10deallocateB8ue170006EPS1_m, symObjAddr: 0x1B90, symBinAddr: 0x100004800, symSize: 0x44 }
  - { offsetInCU: 0xCF37, offset: 0xCF37, size: 0x8, addend: 0x0, symName: __ZNSt3__117__compressed_pairIP7FortuneNS_9allocatorIS1_EEE6secondB8ue170006Ev, symObjAddr: 0x1C50, symBinAddr: 0x1000048C0, symSize: 0x24 }
  - { offsetInCU: 0xCF5C, offset: 0xCF5C, size: 0x8, addend: 0x0, symName: __ZNSt3__122__compressed_pair_elemINS_9allocatorI7FortuneEELi1ELb1EE5__getB8ue170006Ev, symObjAddr: 0x1C74, symBinAddr: 0x1000048E4, symSize: 0x14 }
  - { offsetInCU: 0xCF81, offset: 0xCF81, size: 0x8, addend: 0x0, symName: __ZNKSt3__16vectorI7FortuneNS_9allocatorIS1_EEE9__end_capB8ue170006Ev, symObjAddr: 0x1C88, symBinAddr: 0x1000048F8, symSize: 0x28 }
  - { offsetInCU: 0xCFA6, offset: 0xCFA6, size: 0x8, addend: 0x0, symName: __ZNKSt3__117__compressed_pairIP7FortuneNS_9allocatorIS1_EEE5firstB8ue170006Ev, symObjAddr: 0x1CB0, symBinAddr: 0x100004920, symSize: 0x24 }
  - { offsetInCU: 0xCFCB, offset: 0xCFCB, size: 0x8, addend: 0x0, symName: __ZNKSt3__122__compressed_pair_elemIP7FortuneLi0ELb0EE5__getB8ue170006Ev, symObjAddr: 0x1CD4, symBinAddr: 0x100004944, symSize: 0x14 }
  - { offsetInCU: 0xCFF0, offset: 0xCFF0, size: 0x8, addend: 0x0, symName: __ZNSt3__19basic_iosIcNS_11char_traitsIcEEEC2B8ue170006Ev, symObjAddr: 0x1CE8, symBinAddr: 0x100004958, symSize: 0x44 }
  - { offsetInCU: 0xD019, offset: 0xD019, size: 0x8, addend: 0x0, symName: __ZNSt3__113basic_istreamIcNS_11char_traitsIcEEEC2B8ue170006EPNS_15basic_streambufIcS2_EE, symObjAddr: 0x1D2C, symBinAddr: 0x10000499C, symSize: 0x64 }
  - { offsetInCU: 0xD05B, offset: 0xD05B, size: 0x8, addend: 0x0, symName: __ZNSt3__113basic_filebufIcNS_11char_traitsIcEEE4openERKNS_12basic_stringIcS2_NS_9allocatorIcEEEEj, symObjAddr: 0x1D90, symBinAddr: 0x100004A00, symSize: 0x44 }
  - { offsetInCU: 0xD09E, offset: 0xD09E, size: 0x8, addend: 0x0, symName: __ZNSt3__19basic_iosIcNS_11char_traitsIcEEE8setstateB8ue170006Ej, symObjAddr: 0x1DD4, symBinAddr: 0x100004A44, symSize: 0x2C }
  - { offsetInCU: 0xD0D2, offset: 0xD0D2, size: 0x8, addend: 0x0, symName: __ZNSt3__18ios_baseC2B8ue170006Ev, symObjAddr: 0x1E00, symBinAddr: 0x100004A70, symSize: 0x24 }
  - { offsetInCU: 0xD0FA, offset: 0xD0FA, size: 0x8, addend: 0x0, symName: __ZNSt3__19basic_iosIcNS_11char_traitsIcEEE4initB8ue170006EPNS_15basic_streambufIcS2_EE, symObjAddr: 0x1E24, symBinAddr: 0x100004A94, symSize: 0x44 }
  - { offsetInCU: 0xD130, offset: 0xD130, size: 0x8, addend: 0x0, symName: __ZNSt3__111char_traitsIcE3eofB8ue170006Ev, symObjAddr: 0x1E68, symBinAddr: 0x100004AD8, symSize: 0x8 }
  - { offsetInCU: 0xD144, offset: 0xD144, size: 0x8, addend: 0x0, symName: __ZNKSt3__112basic_stringIcNS_11char_traitsIcEENS_9allocatorIcEEE5c_strB8ue170006Ev, symObjAddr: 0x1E70, symBinAddr: 0x100004AE0, symSize: 0x24 }
  - { offsetInCU: 0xD169, offset: 0xD169, size: 0x8, addend: 0x0, symName: __ZNKSt3__112basic_stringIcNS_11char_traitsIcEENS_9allocatorIcEEE4dataB8ue170006Ev, symObjAddr: 0x1E94, symBinAddr: 0x100004B04, symSize: 0x28 }
  - { offsetInCU: 0xD18E, offset: 0xD18E, size: 0x8, addend: 0x0, symName: __ZNKSt3__112basic_stringIcNS_11char_traitsIcEENS_9allocatorIcEEE13__get_pointerB8ue170006Ev, symObjAddr: 0x1ED0, symBinAddr: 0x100004B40, symSize: 0x54 }
  - { offsetInCU: 0xD1B3, offset: 0xD1B3, size: 0x8, addend: 0x0, symName: __ZNKSt3__112basic_stringIcNS_11char_traitsIcEENS_9allocatorIcEEE9__is_longB8ue170006Ev, symObjAddr: 0x1F24, symBinAddr: 0x100004B94, symSize: 0x38 }
  - { offsetInCU: 0xD1D8, offset: 0xD1D8, size: 0x8, addend: 0x0, symName: __ZNKSt3__112basic_stringIcNS_11char_traitsIcEENS_9allocatorIcEEE18__get_long_pointerB8ue170006Ev, symObjAddr: 0x1F5C, symBinAddr: 0x100004BCC, symSize: 0x28 }
  - { offsetInCU: 0xD1FD, offset: 0xD1FD, size: 0x8, addend: 0x0, symName: __ZNKSt3__112basic_stringIcNS_11char_traitsIcEENS_9allocatorIcEEE19__get_short_pointerB8ue170006Ev, symObjAddr: 0x1F84, symBinAddr: 0x100004BF4, symSize: 0x28 }
  - { offsetInCU: 0xD222, offset: 0xD222, size: 0x8, addend: 0x0, symName: __ZNKSt3__117__compressed_pairINS_12basic_stringIcNS_11char_traitsIcEENS_9allocatorIcEEE5__repES5_E5firstB8ue170006Ev, symObjAddr: 0x1FAC, symBinAddr: 0x100004C1C, symSize: 0x24 }
  - { offsetInCU: 0xD247, offset: 0xD247, size: 0x8, addend: 0x0, symName: __ZNKSt3__122__compressed_pair_elemINS_12basic_stringIcNS_11char_traitsIcEENS_9allocatorIcEEE5__repELi0ELb0EE5__getB8ue170006Ev, symObjAddr: 0x1FD0, symBinAddr: 0x100004C40, symSize: 0x14 }
  - { offsetInCU: 0xD26C, offset: 0xD26C, size: 0x8, addend: 0x0, symName: __ZNSt3__114pointer_traitsIPKcE10pointer_toB8ue170006ERS1_, symObjAddr: 0x1FE4, symBinAddr: 0x100004C54, symSize: 0x14 }
  - { offsetInCU: 0xD28E, offset: 0xD28E, size: 0x8, addend: 0x0, symName: __ZNSt3__18ios_base8setstateB8ue170006Ej, symObjAddr: 0x1FF8, symBinAddr: 0x100004C68, symSize: 0x34 }
  - { offsetInCU: 0xD2C3, offset: 0xD2C3, size: 0x8, addend: 0x0, symName: __ZNKSt3__19basic_iosIcNS_11char_traitsIcEEE5widenB8ue170006Ec, symObjAddr: 0x202C, symBinAddr: 0x100004C9C, symSize: 0x84 }
  - { offsetInCU: 0xD330, offset: 0xD330, size: 0x8, addend: 0x0, symName: __ZNKSt3__15ctypeIcE5widenB8ue170006Ec, symObjAddr: 0x20DC, symBinAddr: 0x100004D4C, symSize: 0x38 }
  - { offsetInCU: 0xD364, offset: 0xD364, size: 0x8, addend: 0x0, symName: __ZNKSt3__19basic_iosIcNS_11char_traitsIcEEE4failB8ue170006Ev, symObjAddr: 0x2114, symBinAddr: 0x100004D84, symSize: 0x28 }
  - { offsetInCU: 0xD389, offset: 0xD389, size: 0x8, addend: 0x0, symName: __ZNKSt3__18ios_base4failB8ue170006Ev, symObjAddr: 0x213C, symBinAddr: 0x100004DAC, symSize: 0x28 }
  - { offsetInCU: 0xD3B0, offset: 0xD3B0, size: 0x8, addend: 0x0, symName: __ZNSt3__115basic_stringbufIcNS_11char_traitsIcEENS_9allocatorIcEEEC1B8ue170006ERKNS_12basic_stringIcS2_S4_EEj, symObjAddr: 0x2164, symBinAddr: 0x100004DD4, symSize: 0x3C }
  - { offsetInCU: 0xD3F7, offset: 0xD3F7, size: 0x8, addend: 0x0, symName: __ZNSt3__115basic_stringbufIcNS_11char_traitsIcEENS_9allocatorIcEEEC2B8ue170006ERKNS_12basic_stringIcS2_S4_EEj, symObjAddr: 0x21A0, symBinAddr: 0x100004E10, symSize: 0xB4 }
  - { offsetInCU: 0xD43E, offset: 0xD43E, size: 0x8, addend: 0x0, symName: __ZNKSt3__112basic_stringIcNS_11char_traitsIcEENS_9allocatorIcEEE13get_allocatorB8ue170006Ev, symObjAddr: 0x2254, symBinAddr: 0x100004EC4, symSize: 0x24 }
  - { offsetInCU: 0xD463, offset: 0xD463, size: 0x8, addend: 0x0, symName: __ZNSt3__112basic_stringIcNS_11char_traitsIcEENS_9allocatorIcEEEC1B8ue170006ERKS4_, symObjAddr: 0x2278, symBinAddr: 0x100004EE8, symSize: 0x34 }
  - { offsetInCU: 0xD49B, offset: 0xD49B, size: 0x8, addend: 0x0, symName: __ZNKSt3__112basic_stringIcNS_11char_traitsIcEENS_9allocatorIcEEE7__allocB8ue170006Ev, symObjAddr: 0x22AC, symBinAddr: 0x100004F1C, symSize: 0x24 }
  - { offsetInCU: 0xD4C0, offset: 0xD4C0, size: 0x8, addend: 0x0, symName: __ZNKSt3__117__compressed_pairINS_12basic_stringIcNS_11char_traitsIcEENS_9allocatorIcEEE5__repES5_E6secondB8ue170006Ev, symObjAddr: 0x22D0, symBinAddr: 0x100004F40, symSize: 0x24 }
  - { offsetInCU: 0xD4E5, offset: 0xD4E5, size: 0x8, addend: 0x0, symName: __ZNKSt3__122__compressed_pair_elemINS_9allocatorIcEELi1ELb1EE5__getB8ue170006Ev, symObjAddr: 0x22F4, symBinAddr: 0x100004F64, symSize: 0x14 }
  - { offsetInCU: 0xD50A, offset: 0xD50A, size: 0x8, addend: 0x0, symName: __ZNSt3__112basic_stringIcNS_11char_traitsIcEENS_9allocatorIcEEEC2B8ue170006ERKS4_, symObjAddr: 0x2308, symBinAddr: 0x100004F78, symSize: 0x48 }
  - { offsetInCU: 0xD542, offset: 0xD542, size: 0x8, addend: 0x0, symName: __ZNSt3__117__compressed_pairINS_12basic_stringIcNS_11char_traitsIcEENS_9allocatorIcEEE5__repES5_EC1B8ue170006INS_18__default_init_tagERKS5_EEOT_OT0_, symObjAddr: 0x2350, symBinAddr: 0x100004FC0, symSize: 0x3C }
  - { offsetInCU: 0xD599, offset: 0xD599, size: 0x8, addend: 0x0, symName: __ZNSt3__117__compressed_pairINS_12basic_stringIcNS_11char_traitsIcEENS_9allocatorIcEEE5__repES5_EC2B8ue170006INS_18__default_init_tagERKS5_EEOT_OT0_, symObjAddr: 0x238C, symBinAddr: 0x100004FFC, symSize: 0x40 }
  - { offsetInCU: 0xD5F0, offset: 0xD5F0, size: 0x8, addend: 0x0, symName: __ZNSt3__122__compressed_pair_elemINS_9allocatorIcEELi1ELb1EEC2B8ue170006IRKS2_vEEOT_, symObjAddr: 0x23CC, symBinAddr: 0x10000503C, symSize: 0x18 }
  - { offsetInCU: 0xD64F, offset: 0xD64F, size: 0x8, addend: 0x0, symName: __ZNKSt3__113basic_istreamIcNS_11char_traitsIcEEE6sentrycvbB8ue170006Ev, symObjAddr: 0x23E4, symBinAddr: 0x100005054, symSize: 0x1C }
  - { offsetInCU: 0xD673, offset: 0xD673, size: 0x8, addend: 0x0, symName: __ZNSt3__112basic_stringIcNS_11char_traitsIcEENS_9allocatorIcEEE5clearB8ue170006Ev, symObjAddr: 0x2400, symBinAddr: 0x100005070, symSize: 0x78 }
  - { offsetInCU: 0xD699, offset: 0xD699, size: 0x8, addend: 0x0, symName: __ZNKSt3__19basic_iosIcNS_11char_traitsIcEEE5rdbufB8ue170006Ev, symObjAddr: 0x2478, symBinAddr: 0x1000050E8, symSize: 0x24 }
  - { offsetInCU: 0xD6C0, offset: 0xD6C0, size: 0x8, addend: 0x0, symName: __ZNSt3__115basic_streambufIcNS_11char_traitsIcEEE6sbumpcB8ue170006Ev, symObjAddr: 0x249C, symBinAddr: 0x10000510C, symSize: 0x78 }
  - { offsetInCU: 0xD6E5, offset: 0xD6E5, size: 0x8, addend: 0x0, symName: __ZNSt3__111char_traitsIcE11eq_int_typeB8ue170006Eii, symObjAddr: 0x2514, symBinAddr: 0x100005184, symSize: 0x28 }
  - { offsetInCU: 0xD718, offset: 0xD718, size: 0x8, addend: 0x0, symName: __ZNSt3__111char_traitsIcE12to_char_typeB8ue170006Ei, symObjAddr: 0x253C, symBinAddr: 0x1000051AC, symSize: 0x18 }
  - { offsetInCU: 0xD73B, offset: 0xD73B, size: 0x8, addend: 0x0, symName: __ZNSt3__111char_traitsIcE2eqEcc, symObjAddr: 0x2554, symBinAddr: 0x1000051C4, symSize: 0x28 }
  - { offsetInCU: 0xD76C, offset: 0xD76C, size: 0x8, addend: 0x0, symName: __ZNKSt3__112basic_stringIcNS_11char_traitsIcEENS_9allocatorIcEEE4sizeB8ue170006Ev, symObjAddr: 0x257C, symBinAddr: 0x1000051EC, symSize: 0x54 }
  - { offsetInCU: 0xD791, offset: 0xD791, size: 0x8, addend: 0x0, symName: __ZNKSt3__112basic_stringIcNS_11char_traitsIcEENS_9allocatorIcEEE8max_sizeB8ue170006Ev, symObjAddr: 0x25D0, symBinAddr: 0x100005240, symSize: 0xAC }
  - { offsetInCU: 0xD7E3, offset: 0xD7E3, size: 0x8, addend: 0x0, symName: __ZNSt3__18ios_base18__setstate_nothrowB8ue170006Ej, symObjAddr: 0x267C, symBinAddr: 0x1000052EC, symSize: 0x64 }
  - { offsetInCU: 0xD817, offset: 0xD817, size: 0x8, addend: 0x0, symName: __ZNKSt3__19basic_iosIcNS_11char_traitsIcEEE10exceptionsB8ue170006Ev, symObjAddr: 0x26E0, symBinAddr: 0x100005350, symSize: 0x24 }
  - { offsetInCU: 0xD83C, offset: 0xD83C, size: 0x8, addend: 0x0, symName: __ZNSt3__111char_traitsIcE6assignB8ue170006ERcRKc, symObjAddr: 0x2704, symBinAddr: 0x100005374, symSize: 0x24 }
  - { offsetInCU: 0xD86D, offset: 0xD86D, size: 0x8, addend: 0x0, symName: __ZNSt3__112basic_stringIcNS_11char_traitsIcEENS_9allocatorIcEEE18__get_long_pointerB8ue170006Ev, symObjAddr: 0x2728, symBinAddr: 0x100005398, symSize: 0x28 }
  - { offsetInCU: 0xD892, offset: 0xD892, size: 0x8, addend: 0x0, symName: __ZNSt3__112basic_stringIcNS_11char_traitsIcEENS_9allocatorIcEEE15__set_long_sizeB8ue170006Em, symObjAddr: 0x2750, symBinAddr: 0x1000053C0, symSize: 0x38 }
  - { offsetInCU: 0xD8C6, offset: 0xD8C6, size: 0x8, addend: 0x0, symName: __ZNSt3__112basic_stringIcNS_11char_traitsIcEENS_9allocatorIcEEE19__get_short_pointerB8ue170006Ev, symObjAddr: 0x2788, symBinAddr: 0x1000053F8, symSize: 0x28 }
  - { offsetInCU: 0xD8EB, offset: 0xD8EB, size: 0x8, addend: 0x0, symName: __ZNSt3__112basic_stringIcNS_11char_traitsIcEENS_9allocatorIcEEE16__set_short_sizeB8ue170006Em, symObjAddr: 0x27B0, symBinAddr: 0x100005420, symSize: 0x78 }
  - { offsetInCU: 0xD91F, offset: 0xD91F, size: 0x8, addend: 0x0, symName: __ZNSt3__114pointer_traitsIPcE10pointer_toB8ue170006ERc, symObjAddr: 0x2828, symBinAddr: 0x100005498, symSize: 0x14 }
  - { offsetInCU: 0xD942, offset: 0xD942, size: 0x8, addend: 0x0, symName: __ZNKSt3__18ios_base5rdbufB8ue170006Ev, symObjAddr: 0x283C, symBinAddr: 0x1000054AC, symSize: 0x18 }
  - { offsetInCU: 0xD967, offset: 0xD967, size: 0x8, addend: 0x0, symName: __ZNSt3__111char_traitsIcE11to_int_typeB8ue170006Ec, symObjAddr: 0x2854, symBinAddr: 0x1000054C4, symSize: 0x14 }
  - { offsetInCU: 0xD98B, offset: 0xD98B, size: 0x8, addend: 0x0, symName: __ZNKSt3__112basic_stringIcNS_11char_traitsIcEENS_9allocatorIcEEE15__get_long_sizeB8ue170006Ev, symObjAddr: 0x2868, symBinAddr: 0x1000054D8, symSize: 0x28 }
  - { offsetInCU: 0xD9B0, offset: 0xD9B0, size: 0x8, addend: 0x0, symName: __ZNKSt3__112basic_stringIcNS_11char_traitsIcEENS_9allocatorIcEEE16__get_short_sizeB8ue170006Ev, symObjAddr: 0x2890, symBinAddr: 0x100005500, symSize: 0x34 }
  - { offsetInCU: 0xD9DF, offset: 0xD9DF, size: 0x8, addend: 0x0, symName: __ZNSt3__116allocator_traitsINS_9allocatorIcEEE8max_sizeB8ue170006IS2_vEEmRKS2_, symObjAddr: 0x28C4, symBinAddr: 0x100005534, symSize: 0x24 }
  - { offsetInCU: 0xDA0D, offset: 0xDA0D, size: 0x8, addend: 0x0, symName: __ZNSt3__114numeric_limitsImE3maxB8ue170006Ev, symObjAddr: 0x28E8, symBinAddr: 0x100005558, symSize: 0x14 }
  - { offsetInCU: 0xDA21, offset: 0xDA21, size: 0x8, addend: 0x0, symName: __ZNKSt3__19allocatorIcE8max_sizeB8ue170006Ev, symObjAddr: 0x28FC, symBinAddr: 0x10000556C, symSize: 0x14 }
  - { offsetInCU: 0xDA46, offset: 0xDA46, size: 0x8, addend: 0x0, symName: __ZNSt3__123__libcpp_numeric_limitsImLb1EE3maxB8ue170006Ev, symObjAddr: 0x2910, symBinAddr: 0x100005580, symSize: 0x8 }
  - { offsetInCU: 0xDA5A, offset: 0xDA5A, size: 0x8, addend: 0x0, symName: __ZNKSt3__18ios_base10exceptionsB8ue170006Ev, symObjAddr: 0x2918, symBinAddr: 0x100005588, symSize: 0x18 }
  - { offsetInCU: 0xDA81, offset: 0xDA81, size: 0x8, addend: 0x0, symName: __ZNSt3__16vectorI7FortuneNS_9allocatorIS1_EEE9__end_capB8ue170006Ev, symObjAddr: 0x2930, symBinAddr: 0x1000055A0, symSize: 0x28 }
  - { offsetInCU: 0xDAA6, offset: 0xDAA6, size: 0x8, addend: 0x0, symName: __ZNSt3__16vectorI7FortuneNS_9allocatorIS1_EEE22__construct_one_at_endB8ue170006IJRKS1_EEEvDpOT_, symObjAddr: 0x2958, symBinAddr: 0x1000055C8, symSize: 0x90 }
  - { offsetInCU: 0xDAF3, offset: 0xDAF3, size: 0x8, addend: 0x0, symName: __ZNSt3__16vectorI7FortuneNS_9allocatorIS1_EEE21__push_back_slow_pathIRKS1_EEvOT_, symObjAddr: 0x29E8, symBinAddr: 0x100005658, symSize: 0xD8 }
  - { offsetInCU: 0xDB50, offset: 0xDB50, size: 0x8, addend: 0x0, symName: __ZNSt3__117__compressed_pairIP7FortuneNS_9allocatorIS1_EEE5firstB8ue170006Ev, symObjAddr: 0x2AC0, symBinAddr: 0x100005730, symSize: 0x24 }
  - { offsetInCU: 0xDB75, offset: 0xDB75, size: 0x8, addend: 0x0, symName: __ZNSt3__122__compressed_pair_elemIP7FortuneLi0ELb0EE5__getB8ue170006Ev, symObjAddr: 0x2AE4, symBinAddr: 0x100005754, symSize: 0x14 }
  - { offsetInCU: 0xDBB3, offset: 0xDBB3, size: 0x8, addend: 0x0, symName: __ZNSt3__16vectorI7FortuneNS_9allocatorIS1_EEE21_ConstructTransactionC1B8ue170006ERS4_m, symObjAddr: 0x2AF8, symBinAddr: 0x100005768, symSize: 0x3C }
  - { offsetInCU: 0xDBFA, offset: 0xDBFA, size: 0x8, addend: 0x0, symName: __ZNSt3__116allocator_traitsINS_9allocatorI7FortuneEEE9constructB8ue170006IS2_JRKS2_EvEEvRS3_PT_DpOT0_, symObjAddr: 0x2B34, symBinAddr: 0x1000057A4, symSize: 0x34 }
  - { offsetInCU: 0xDC51, offset: 0xDC51, size: 0x8, addend: 0x0, symName: __ZNSt3__16vectorI7FortuneNS_9allocatorIS1_EEE21_ConstructTransactionD1B8ue170006Ev, symObjAddr: 0x2B68, symBinAddr: 0x1000057D8, symSize: 0x2C }
  - { offsetInCU: 0xDC7A, offset: 0xDC7A, size: 0x8, addend: 0x0, symName: __ZNSt3__16vectorI7FortuneNS_9allocatorIS1_EEE21_ConstructTransactionC2B8ue170006ERS4_m, symObjAddr: 0x2B94, symBinAddr: 0x100005804, symSize: 0x4C }
  - { offsetInCU: 0xDCC1, offset: 0xDCC1, size: 0x8, addend: 0x0, symName: __ZNSt3__19allocatorI7FortuneE9constructB8ue170006IS1_JRKS1_EEEvPT_DpOT0_, symObjAddr: 0x2BE0, symBinAddr: 0x100005850, symSize: 0x30 }
  - { offsetInCU: 0xDD16, offset: 0xDD16, size: 0x8, addend: 0x0, symName: __ZN7FortuneC1ERKS_, symObjAddr: 0x2C10, symBinAddr: 0x100005880, symSize: 0x34 }
  - { offsetInCU: 0xDD4A, offset: 0xDD4A, size: 0x8, addend: 0x0, symName: __ZN7FortuneC2ERKS_, symObjAddr: 0x2C44, symBinAddr: 0x1000058B4, symSize: 0x88 }
  - { offsetInCU: 0xDD7E, offset: 0xDD7E, size: 0x8, addend: 0x0, symName: __ZNSt3__16vectorI7FortuneNS_9allocatorIS1_EEE21_ConstructTransactionD2B8ue170006Ev, symObjAddr: 0x2CCC, symBinAddr: 0x10000593C, symSize: 0x20 }
  - { offsetInCU: 0xDDA6, offset: 0xDDA6, size: 0x8, addend: 0x0, symName: __ZNKSt3__16vectorI7FortuneNS_9allocatorIS1_EEE11__recommendB8ue170006Em, symObjAddr: 0x2CEC, symBinAddr: 0x10000595C, symSize: 0xB4 }
  - { offsetInCU: 0xDDFA, offset: 0xDDFA, size: 0x8, addend: 0x0, symName: __ZNSt3__114__split_bufferI7FortuneRNS_9allocatorIS1_EEEC1EmmS4_, symObjAddr: 0x2DA0, symBinAddr: 0x100005A10, symSize: 0x44 }
  - { offsetInCU: 0xDE4F, offset: 0xDE4F, size: 0x8, addend: 0x0, symName: __ZNSt3__114__split_bufferI7FortuneRNS_9allocatorIS1_EEED1Ev, symObjAddr: 0x2EF4, symBinAddr: 0x100005B64, symSize: 0x2C }
  - { offsetInCU: 0xDE79, offset: 0xDE79, size: 0x8, addend: 0x0, symName: __ZNKSt3__16vectorI7FortuneNS_9allocatorIS1_EEE8max_sizeEv, symObjAddr: 0x2F20, symBinAddr: 0x100005B90, symSize: 0x60 }
  - { offsetInCU: 0xDEA0, offset: 0xDEA0, size: 0x8, addend: 0x0, symName: __ZNKSt3__16vectorI7FortuneNS_9allocatorIS1_EEE20__throw_length_errorB8ue170006Ev, symObjAddr: 0x2F80, symBinAddr: 0x100005BF0, symSize: 0x1C }
  - { offsetInCU: 0xDECF, offset: 0xDECF, size: 0x8, addend: 0x0, symName: __ZNSt3__116allocator_traitsINS_9allocatorI7FortuneEEE8max_sizeB8ue170006IS3_vEEmRKS3_, symObjAddr: 0x2FF4, symBinAddr: 0x100005C64, symSize: 0x24 }
  - { offsetInCU: 0xDEFD, offset: 0xDEFD, size: 0x8, addend: 0x0, symName: __ZNKSt3__16vectorI7FortuneNS_9allocatorIS1_EEE7__allocB8ue170006Ev, symObjAddr: 0x3018, symBinAddr: 0x100005C88, symSize: 0x28 }
  - { offsetInCU: 0xDF22, offset: 0xDF22, size: 0x8, addend: 0x0, symName: __ZNSt3__114numeric_limitsIlE3maxB8ue170006Ev, symObjAddr: 0x3040, symBinAddr: 0x100005CB0, symSize: 0x14 }
  - { offsetInCU: 0xDF4A, offset: 0xDF4A, size: 0x8, addend: 0x0, symName: __ZNKSt3__16__lessIvvEclB8ue170006ImmEEbRKT_RKT0_, symObjAddr: 0x30A8, symBinAddr: 0x100005D18, symSize: 0x34 }
  - { offsetInCU: 0xDF9D, offset: 0xDF9D, size: 0x8, addend: 0x0, symName: __ZNKSt3__19allocatorI7FortuneE8max_sizeB8ue170006Ev, symObjAddr: 0x30DC, symBinAddr: 0x100005D4C, symSize: 0x20 }
  - { offsetInCU: 0xDFC2, offset: 0xDFC2, size: 0x8, addend: 0x0, symName: __ZNKSt3__117__compressed_pairIP7FortuneNS_9allocatorIS1_EEE6secondB8ue170006Ev, symObjAddr: 0x30FC, symBinAddr: 0x100005D6C, symSize: 0x24 }
  - { offsetInCU: 0xDFE7, offset: 0xDFE7, size: 0x8, addend: 0x0, symName: __ZNKSt3__122__compressed_pair_elemINS_9allocatorI7FortuneEELi1ELb1EE5__getB8ue170006Ev, symObjAddr: 0x3120, symBinAddr: 0x100005D90, symSize: 0x14 }
  - { offsetInCU: 0xE00C, offset: 0xE00C, size: 0x8, addend: 0x0, symName: __ZNSt3__123__libcpp_numeric_limitsIlLb1EE3maxB8ue170006Ev, symObjAddr: 0x3134, symBinAddr: 0x100005DA4, symSize: 0x8 }
  - { offsetInCU: 0xE020, offset: 0xE020, size: 0x8, addend: 0x0, symName: __ZNSt12length_errorC1B8ue170006EPKc, symObjAddr: 0x31A0, symBinAddr: 0x100005E10, symSize: 0x34 }
  - { offsetInCU: 0xE057, offset: 0xE057, size: 0x8, addend: 0x0, symName: __ZNSt12length_errorC2B8ue170006EPKc, symObjAddr: 0x31D4, symBinAddr: 0x100005E44, symSize: 0x4C }
  - { offsetInCU: 0xE08E, offset: 0xE08E, size: 0x8, addend: 0x0, symName: __ZNSt3__114__split_bufferI7FortuneRNS_9allocatorIS1_EEEC2EmmS4_, symObjAddr: 0x3274, symBinAddr: 0x100005EE4, symSize: 0xE0 }
  - { offsetInCU: 0xE101, offset: 0xE101, size: 0x8, addend: 0x0, symName: __ZNSt3__117__compressed_pairIP7FortuneRNS_9allocatorIS1_EEEC1B8ue170006IDnS5_EEOT_OT0_, symObjAddr: 0x3354, symBinAddr: 0x100005FC4, symSize: 0x3C }
  - { offsetInCU: 0xE158, offset: 0xE158, size: 0x8, addend: 0x0, symName: __ZNSt3__114__split_bufferI7FortuneRNS_9allocatorIS1_EEE7__allocB8ue170006Ev, symObjAddr: 0x33D0, symBinAddr: 0x100006040, symSize: 0x28 }
  - { offsetInCU: 0xE17D, offset: 0xE17D, size: 0x8, addend: 0x0, symName: __ZNSt3__114__split_bufferI7FortuneRNS_9allocatorIS1_EEE9__end_capB8ue170006Ev, symObjAddr: 0x33F8, symBinAddr: 0x100006068, symSize: 0x28 }
  - { offsetInCU: 0xE1A2, offset: 0xE1A2, size: 0x8, addend: 0x0, symName: __ZNSt3__117__compressed_pairIP7FortuneRNS_9allocatorIS1_EEEC2B8ue170006IDnS5_EEOT_OT0_, symObjAddr: 0x3420, symBinAddr: 0x100006090, symSize: 0x48 }
  - { offsetInCU: 0xE1F9, offset: 0xE1F9, size: 0x8, addend: 0x0, symName: __ZNSt3__122__compressed_pair_elemIRNS_9allocatorI7FortuneEELi1ELb0EEC2B8ue170006IS4_vEEOT_, symObjAddr: 0x3468, symBinAddr: 0x1000060D8, symSize: 0x20 }
  - { offsetInCU: 0xE23A, offset: 0xE23A, size: 0x8, addend: 0x0, symName: __ZNSt3__19allocatorI7FortuneE8allocateB8ue170006Em, symObjAddr: 0x3488, symBinAddr: 0x1000060F8, symSize: 0x5C }
  - { offsetInCU: 0xE26D, offset: 0xE26D, size: 0x8, addend: 0x0, symName: __ZNSt3__117__compressed_pairIP7FortuneRNS_9allocatorIS1_EEE6secondB8ue170006Ev, symObjAddr: 0x3564, symBinAddr: 0x1000061D4, symSize: 0x28 }
  - { offsetInCU: 0xE292, offset: 0xE292, size: 0x8, addend: 0x0, symName: __ZNSt3__122__compressed_pair_elemIRNS_9allocatorI7FortuneEELi1ELb0EE5__getB8ue170006Ev, symObjAddr: 0x358C, symBinAddr: 0x1000061FC, symSize: 0x18 }
  - { offsetInCU: 0xE2B7, offset: 0xE2B7, size: 0x8, addend: 0x0, symName: __ZNSt3__117__compressed_pairIP7FortuneRNS_9allocatorIS1_EEE5firstB8ue170006Ev, symObjAddr: 0x35A4, symBinAddr: 0x100006214, symSize: 0x24 }
  - { offsetInCU: 0xE2DC, offset: 0xE2DC, size: 0x8, addend: 0x0, symName: __ZNSt3__116reverse_iteratorIP7FortuneEC1B8ue170006ES2_, symObjAddr: 0x36F4, symBinAddr: 0x100006364, symSize: 0x34 }
  - { offsetInCU: 0xE313, offset: 0xE313, size: 0x8, addend: 0x0, symName: __ZNKSt3__116reverse_iteratorIP7FortuneE4baseB8ue170006Ev, symObjAddr: 0x3728, symBinAddr: 0x100006398, symSize: 0x18 }
  - { offsetInCU: 0xE338, offset: 0xE338, size: 0x8, addend: 0x0, symName: __ZNKSt3__16vectorI7FortuneNS_9allocatorIS1_EEE14__annotate_newB8ue170006Em, symObjAddr: 0x377C, symBinAddr: 0x1000063EC, symSize: 0xC8 }
  - { offsetInCU: 0xE36C, offset: 0xE36C, size: 0x8, addend: 0x0, symName: __ZNSt3__129_AllocatorDestroyRangeReverseINS_9allocatorI7FortuneEENS_16reverse_iteratorIPS2_EEEC1B8ue170006ERS3_RS6_S9_, symObjAddr: 0x3890, symBinAddr: 0x100006500, symSize: 0x44 }
  - { offsetInCU: 0xE3C7, offset: 0xE3C7, size: 0x8, addend: 0x0, symName: __ZNSt3__116allocator_traitsINS_9allocatorI7FortuneEEE9constructB8ue170006IS2_JS2_EvEEvRS3_PT_DpOT0_, symObjAddr: 0x391C, symBinAddr: 0x10000658C, symSize: 0x34 }
  - { offsetInCU: 0xE41E, offset: 0xE41E, size: 0x8, addend: 0x0, symName: __ZNKSt3__116reverse_iteratorIP7FortuneEdeB8ue170006Ev, symObjAddr: 0x3974, symBinAddr: 0x1000065E4, symSize: 0x28 }
  - { offsetInCU: 0xE451, offset: 0xE451, size: 0x8, addend: 0x0, symName: __ZNSt3__116reverse_iteratorIP7FortuneEppB8ue170006Ev, symObjAddr: 0x399C, symBinAddr: 0x10000660C, symSize: 0x20 }
  - { offsetInCU: 0xE476, offset: 0xE476, size: 0x8, addend: 0x0, symName: __ZNSt3__128__exception_guard_exceptionsINS_29_AllocatorDestroyRangeReverseINS_9allocatorI7FortuneEENS_16reverse_iteratorIPS3_EEEEE10__completeB8ue170006Ev, symObjAddr: 0x39BC, symBinAddr: 0x10000662C, symSize: 0x1C }
  - { offsetInCU: 0xE49B, offset: 0xE49B, size: 0x8, addend: 0x0, symName: __ZNSt3__128__exception_guard_exceptionsINS_29_AllocatorDestroyRangeReverseINS_9allocatorI7FortuneEENS_16reverse_iteratorIPS3_EEEEED1B8ue170006Ev, symObjAddr: 0x39D8, symBinAddr: 0x100006648, symSize: 0x2C }
  - { offsetInCU: 0xE4C4, offset: 0xE4C4, size: 0x8, addend: 0x0, symName: __ZNSt3__128__exception_guard_exceptionsINS_29_AllocatorDestroyRangeReverseINS_9allocatorI7FortuneEENS_16reverse_iteratorIPS3_EEEEEC1B8ue170006ES8_, symObjAddr: 0x3A04, symBinAddr: 0x100006674, symSize: 0x34 }
  - { offsetInCU: 0xE4FC, offset: 0xE4FC, size: 0x8, addend: 0x0, symName: __ZNSt3__128__exception_guard_exceptionsINS_29_AllocatorDestroyRangeReverseINS_9allocatorI7FortuneEENS_16reverse_iteratorIPS3_EEEEEC2B8ue170006ES8_, symObjAddr: 0x3A38, symBinAddr: 0x1000066A8, symSize: 0x30 }
  - { offsetInCU: 0xE534, offset: 0xE534, size: 0x8, addend: 0x0, symName: __ZNSt3__129_AllocatorDestroyRangeReverseINS_9allocatorI7FortuneEENS_16reverse_iteratorIPS2_EEEC2B8ue170006ERS3_RS6_S9_, symObjAddr: 0x3A68, symBinAddr: 0x1000066D8, symSize: 0x38 }
  - { offsetInCU: 0xE58A, offset: 0xE58A, size: 0x8, addend: 0x0, symName: __ZNSt3__19allocatorI7FortuneE9constructB8ue170006IS1_JS1_EEEvPT_DpOT0_, symObjAddr: 0x3AA0, symBinAddr: 0x100006710, symSize: 0x30 }
  - { offsetInCU: 0xE5DF, offset: 0xE5DF, size: 0x8, addend: 0x0, symName: __ZN7FortuneC1EOS_, symObjAddr: 0x3AD0, symBinAddr: 0x100006740, symSize: 0x34 }
  - { offsetInCU: 0xE613, offset: 0xE613, size: 0x8, addend: 0x0, symName: __ZN7FortuneC2EOS_, symObjAddr: 0x3B04, symBinAddr: 0x100006774, symSize: 0x5C }
  - { offsetInCU: 0xE647, offset: 0xE647, size: 0x8, addend: 0x0, symName: __ZNSt3__112basic_stringIcNS_11char_traitsIcEENS_9allocatorIcEEEC1B8ue170006EOS5_, symObjAddr: 0x3B60, symBinAddr: 0x1000067D0, symSize: 0x34 }
  - { offsetInCU: 0xE67F, offset: 0xE67F, size: 0x8, addend: 0x0, symName: __ZNSt3__112basic_stringIcNS_11char_traitsIcEENS_9allocatorIcEEEC2B8ue170006EOS5_, symObjAddr: 0x3B94, symBinAddr: 0x100006804, symSize: 0x48 }
  - { offsetInCU: 0xE6BC, offset: 0xE6BC, size: 0x8, addend: 0x0, symName: __ZNSt3__119__to_address_helperINS_16reverse_iteratorIP7FortuneEEvE6__callB8ue170006ERKS4_, symObjAddr: 0x3BDC, symBinAddr: 0x10000684C, symSize: 0x38 }
  - { offsetInCU: 0xE6DF, offset: 0xE6DF, size: 0x8, addend: 0x0, symName: __ZNKSt3__116reverse_iteratorIP7FortuneEptB8ue170006Ev, symObjAddr: 0x3C14, symBinAddr: 0x100006884, symSize: 0x24 }
  - { offsetInCU: 0xE704, offset: 0xE704, size: 0x8, addend: 0x0, symName: __ZNSt3__128__exception_guard_exceptionsINS_29_AllocatorDestroyRangeReverseINS_9allocatorI7FortuneEENS_16reverse_iteratorIPS3_EEEEED2B8ue170006Ev, symObjAddr: 0x3C38, symBinAddr: 0x1000068A8, symSize: 0x50 }
  - { offsetInCU: 0xE72D, offset: 0xE72D, size: 0x8, addend: 0x0, symName: __ZNKSt3__129_AllocatorDestroyRangeReverseINS_9allocatorI7FortuneEENS_16reverse_iteratorIPS2_EEEclB8ue170006Ev, symObjAddr: 0x3C88, symBinAddr: 0x1000068F8, symSize: 0xB4 }
  - { offsetInCU: 0xE753, offset: 0xE753, size: 0x8, addend: 0x0, symName: __ZNSt3__116reverse_iteratorINS0_IP7FortuneEEEC1B8ue170006ES3_, symObjAddr: 0x3DAC, symBinAddr: 0x100006A1C, symSize: 0x3C }
  - { offsetInCU: 0xE78A, offset: 0xE78A, size: 0x8, addend: 0x0, symName: __ZNSt3__116reverse_iteratorINS0_IP7FortuneEEEppB8ue170006Ev, symObjAddr: 0x3E6C, symBinAddr: 0x100006ADC, symSize: 0x30 }
  - { offsetInCU: 0xE7AF, offset: 0xE7AF, size: 0x8, addend: 0x0, symName: __ZNKSt3__116reverse_iteratorINS0_IP7FortuneEEE4baseB8ue170006Ev, symObjAddr: 0x3E9C, symBinAddr: 0x100006B0C, symSize: 0x24 }
  - { offsetInCU: 0xE7D9, offset: 0xE7D9, size: 0x8, addend: 0x0, symName: __ZNSt3__119__to_address_helperINS_16reverse_iteratorINS1_IP7FortuneEEEEvE6__callB8ue170006ERKS5_, symObjAddr: 0x3EC0, symBinAddr: 0x100006B30, symSize: 0x38 }
  - { offsetInCU: 0xE7FC, offset: 0xE7FC, size: 0x8, addend: 0x0, symName: __ZNKSt3__116reverse_iteratorINS0_IP7FortuneEEEptB8ue170006Ev, symObjAddr: 0x3EF8, symBinAddr: 0x100006B68, symSize: 0x24 }
  - { offsetInCU: 0xE821, offset: 0xE821, size: 0x8, addend: 0x0, symName: __ZNKSt3__116reverse_iteratorINS0_IP7FortuneEEEdeB8ue170006Ev, symObjAddr: 0x3F1C, symBinAddr: 0x100006B8C, symSize: 0x34 }
  - { offsetInCU: 0xE854, offset: 0xE854, size: 0x8, addend: 0x0, symName: __ZNSt3__116reverse_iteratorIP7FortuneEmmB8ue170006Ev, symObjAddr: 0x3F50, symBinAddr: 0x100006BC0, symSize: 0x20 }
  - { offsetInCU: 0xE879, offset: 0xE879, size: 0x8, addend: 0x0, symName: __ZNSt3__116reverse_iteratorINS0_IP7FortuneEEEC2B8ue170006ES3_, symObjAddr: 0x3F70, symBinAddr: 0x100006BE0, symSize: 0x2C }
  - { offsetInCU: 0xE8B0, offset: 0xE8B0, size: 0x8, addend: 0x0, symName: __ZNSt3__116reverse_iteratorIP7FortuneEC2B8ue170006ES2_, symObjAddr: 0x3F9C, symBinAddr: 0x100006C0C, symSize: 0x28 }
  - { offsetInCU: 0xE8E7, offset: 0xE8E7, size: 0x8, addend: 0x0, symName: __ZNSt3__114__split_bufferI7FortuneRNS_9allocatorIS1_EEED2Ev, symObjAddr: 0x3FC4, symBinAddr: 0x100006C34, symSize: 0x8C }
  - { offsetInCU: 0xE912, offset: 0xE912, size: 0x8, addend: 0x0, symName: __ZNSt3__114__split_bufferI7FortuneRNS_9allocatorIS1_EEE5clearB8ue170006Ev, symObjAddr: 0x4050, symBinAddr: 0x100006CC0, symSize: 0x28 }
  - { offsetInCU: 0xE937, offset: 0xE937, size: 0x8, addend: 0x0, symName: __ZNKSt3__114__split_bufferI7FortuneRNS_9allocatorIS1_EEE8capacityB8ue170006Ev, symObjAddr: 0x4078, symBinAddr: 0x100006CE8, symSize: 0x40 }
  - { offsetInCU: 0xE95C, offset: 0xE95C, size: 0x8, addend: 0x0, symName: __ZNSt3__114__split_bufferI7FortuneRNS_9allocatorIS1_EEE17__destruct_at_endB8ue170006EPS1_, symObjAddr: 0x40B8, symBinAddr: 0x100006D28, symSize: 0x2C }
  - { offsetInCU: 0xE98E, offset: 0xE98E, size: 0x8, addend: 0x0, symName: __ZNSt3__114__split_bufferI7FortuneRNS_9allocatorIS1_EEE17__destruct_at_endB8ue170006EPS1_NS_17integral_constantIbLb0EEE, symObjAddr: 0x40E4, symBinAddr: 0x100006D54, symSize: 0x80 }
  - { offsetInCU: 0xE9CE, offset: 0xE9CE, size: 0x8, addend: 0x0, symName: __ZNKSt3__114__split_bufferI7FortuneRNS_9allocatorIS1_EEE9__end_capB8ue170006Ev, symObjAddr: 0x4164, symBinAddr: 0x100006DD4, symSize: 0x28 }
  - { offsetInCU: 0xE9F3, offset: 0xE9F3, size: 0x8, addend: 0x0, symName: __ZNKSt3__117__compressed_pairIP7FortuneRNS_9allocatorIS1_EEE5firstB8ue170006Ev, symObjAddr: 0x418C, symBinAddr: 0x100006DFC, symSize: 0x24 }
  - { offsetInCU: 0xEA18, offset: 0xEA18, size: 0x8, addend: 0x0, symName: __ZNSt3__113basic_ostreamIcNS_11char_traitsIcEEEC2B8ue170006EPNS_15basic_streambufIcS2_EE, symObjAddr: 0x41B0, symBinAddr: 0x100006E20, symSize: 0x60 }
  - { offsetInCU: 0xEA5B, offset: 0xEA5B, size: 0x8, addend: 0x0, symName: __ZNKSt3__16vectorI7FortuneNS_9allocatorIS1_EEE11__make_iterB8ue170006EPKS1_, symObjAddr: 0x4210, symBinAddr: 0x100006E80, symSize: 0x30 }
  - { offsetInCU: 0xEA8F, offset: 0xEA8F, size: 0x8, addend: 0x0, symName: __ZNSt3__111__wrap_iterIPK7FortuneEC1B8ue170006ES3_, symObjAddr: 0x4240, symBinAddr: 0x100006EB0, symSize: 0x34 }
  - { offsetInCU: 0xEAC6, offset: 0xEAC6, size: 0x8, addend: 0x0, symName: __ZNSt3__111__wrap_iterIPK7FortuneEC2B8ue170006ES3_, symObjAddr: 0x4274, symBinAddr: 0x100006EE4, symSize: 0x20 }
  - { offsetInCU: 0xEAFD, offset: 0xEAFD, size: 0x8, addend: 0x0, symName: __ZNSt3__111char_traitsIcE6lengthB8ue170006EPKc, symObjAddr: 0x4480, symBinAddr: 0x1000070F0, symSize: 0x34 }
  - { offsetInCU: 0xEB3E, offset: 0xEB3E, size: 0x8, addend: 0x0, symName: __ZNKSt3__113basic_ostreamIcNS_11char_traitsIcEEE6sentrycvbB8ue170006Ev, symObjAddr: 0x44B4, symBinAddr: 0x100007124, symSize: 0x1C }
  - { offsetInCU: 0xEB63, offset: 0xEB63, size: 0x8, addend: 0x0, symName: __ZNSt3__119ostreambuf_iteratorIcNS_11char_traitsIcEEEC1B8ue170006ERNS_13basic_ostreamIcS2_EE, symObjAddr: 0x4710, symBinAddr: 0x100007380, symSize: 0x34 }
  - { offsetInCU: 0xEB9A, offset: 0xEB9A, size: 0x8, addend: 0x0, symName: __ZNKSt3__18ios_base5flagsB8ue170006Ev, symObjAddr: 0x4744, symBinAddr: 0x1000073B4, symSize: 0x18 }
  - { offsetInCU: 0xEBC0, offset: 0xEBC0, size: 0x8, addend: 0x0, symName: __ZNKSt3__19basic_iosIcNS_11char_traitsIcEEE4fillB8ue170006Ev, symObjAddr: 0x475C, symBinAddr: 0x1000073CC, symSize: 0x64 }
  - { offsetInCU: 0xEBE7, offset: 0xEBE7, size: 0x8, addend: 0x0, symName: __ZNKSt3__119ostreambuf_iteratorIcNS_11char_traitsIcEEE6failedB8ue170006Ev, symObjAddr: 0x47C0, symBinAddr: 0x100007430, symSize: 0x24 }
  - { offsetInCU: 0xEC0C, offset: 0xEC0C, size: 0x8, addend: 0x0, symName: __ZNKSt3__18ios_base5widthB8ue170006Ev, symObjAddr: 0x47E4, symBinAddr: 0x100007454, symSize: 0x18 }
  - { offsetInCU: 0xEC33, offset: 0xEC33, size: 0x8, addend: 0x0, symName: __ZNSt3__115basic_streambufIcNS_11char_traitsIcEEE5sputnB8ue170006EPKcl, symObjAddr: 0x47FC, symBinAddr: 0x10000746C, symSize: 0x3C }
  - { offsetInCU: 0xEC74, offset: 0xEC74, size: 0x8, addend: 0x0, symName: __ZNSt3__112basic_stringIcNS_11char_traitsIcEENS_9allocatorIcEEEC1B8ue170006Emc, symObjAddr: 0x4838, symBinAddr: 0x1000074A8, symSize: 0x3C }
  - { offsetInCU: 0xECBB, offset: 0xECBB, size: 0x8, addend: 0x0, symName: __ZNSt3__18ios_base5widthB8ue170006El, symObjAddr: 0x4874, symBinAddr: 0x1000074E4, symSize: 0x2C }
  - { offsetInCU: 0xED00, offset: 0xED00, size: 0x8, addend: 0x0, symName: __ZNSt3__112basic_stringIcNS_11char_traitsIcEENS_9allocatorIcEEEC2B8ue170006Emc, symObjAddr: 0x48A0, symBinAddr: 0x100007510, symSize: 0x4C }
  - { offsetInCU: 0xED47, offset: 0xED47, size: 0x8, addend: 0x0, symName: __ZNSt3__119ostreambuf_iteratorIcNS_11char_traitsIcEEEC2B8ue170006ERNS_13basic_ostreamIcS2_EE, symObjAddr: 0x48EC, symBinAddr: 0x10000755C, symSize: 0x54 }
  - { offsetInCU: 0xED7E, offset: 0xED7E, size: 0x8, addend: 0x0, symName: __ZNSt3__112basic_stringIcNS_11char_traitsIcEENS_9allocatorIcEEEC2B8ue170006ILi0EEEPKc, symObjAddr: 0x4964, symBinAddr: 0x1000075D4, symSize: 0x58 }
...
